(lp0
(S'Baseball'
p1
(lp2
F0.142
aF0.00418539
aF1.225
atp3
a(S'Tennis'
p4
(lp5
F0.057
aF0.00335978
aF1.184
atp6
a(S'Softball'
p7
(lp8
F0.185
aF0.00739299
aF1.1839
atp9
a(S'Racquetball'
p10
(lp11
F0.0427
aF0.002551759
aF1.1839
atp12
a(S'Foam'
p13
(lp14
F0.015
aF0.00692523
aF1.1839
atp15
a.